target datalayout = "e-m:e-p270:32:32-p271:32:32-p272:64:64-i64:64-i128:128-f80:128-n8:16:32:64-S128"
target triple = "x86_64-pc-linux-gnu"

%"class.cv::epnp" = type { double, double, double, double, %"class.std::vector", %"class.std::vector", %"class.std::vector", %"class.std::vector", i32, [4 x [3 x double]], [4 x [3 x double]], i32, ptr, ptr }
%"class.std::vector" = type { %"struct.std::_Vector_base" }
%"struct.std::_Vector_base" = type { %"struct.std::_Vector_base<double, std::allocator<double>>::_Vector_impl" }
%"struct.std::_Vector_base<double, std::allocator<double>>::_Vector_impl" = type { %"struct.std::_Vector_base<double, std::allocator<double>>::_Vector_impl_data" }
%"struct.std::_Vector_base<double, std::allocator<double>>::_Vector_impl_data" = type { ptr, ptr, ptr }

; Function Attrs: mustprogress nounwind uwtable
define hidden noundef double @_ZN2cv4epnp3dotEPKdS2_(ptr noundef nonnull align 8 dereferenceable(352) %0, ptr noundef %1, ptr noundef %2) #5 align 2 {
  %4 = alloca ptr, align 8
  %5 = alloca ptr, align 8
  %6 = alloca ptr, align 8
  store ptr %0, ptr %4, align 8, !tbaa !3
  store ptr %1, ptr %5, align 8, !tbaa !83
  store ptr %2, ptr %6, align 8, !tbaa !83
  %7 = load ptr, ptr %5, align 8, !tbaa !83
  %8 = getelementptr inbounds double, ptr %7, i64 0
  %9 = load double, ptr %8, align 8, !tbaa !40
  %10 = load ptr, ptr %6, align 8, !tbaa !83
  %11 = getelementptr inbounds double, ptr %10, i64 0
  %12 = load double, ptr %11, align 8, !tbaa !40
  %13 = load ptr, ptr %5, align 8, !tbaa !83
  %14 = getelementptr inbounds double, ptr %13, i64 1
  %15 = load double, ptr %14, align 8, !tbaa !40
  %16 = load ptr, ptr %6, align 8, !tbaa !83
  %17 = getelementptr inbounds double, ptr %16, i64 1
  %18 = load double, ptr %17, align 8, !tbaa !40
  %19 = fmul double %15, %18
  %20 = call double @llvm.fmuladd.f64(double %9, double %12, double %19)
  %21 = load ptr, ptr %5, align 8, !tbaa !83
  %22 = getelementptr inbounds double, ptr %21, i64 2
  %23 = load double, ptr %22, align 8, !tbaa !40
  %24 = load ptr, ptr %6, align 8, !tbaa !83
  %25 = getelementptr inbounds double, ptr %24, i64 2
  %26 = load double, ptr %25, align 8, !tbaa !40
  %27 = call double @llvm.fmuladd.f64(double %23, double %26, double %20)
  ret double %27
}

; Function Attrs: mustprogress nounwind uwtable
define linkonce_odr hidden noundef nonnull align 8 dereferenceable(8) ptr @_ZNSt6vectorIdSaIdEEixEm(ptr noundef nonnull align 8 dereferenceable(24) %0, i64 noundef %1) #5 comdat align 2 {
  %3 = alloca ptr, align 8
  %4 = alloca i64, align 8
  store ptr %0, ptr %3, align 8, !tbaa !23
  store i64 %1, ptr %4, align 8, !tbaa !42
  %5 = load ptr, ptr %3, align 8
  %6 = getelementptr inbounds nuw %"struct.std::_Vector_base", ptr %5, i32 0, i32 0
  %7 = getelementptr inbounds nuw %"struct.std::_Vector_base<double, std::allocator<double>>::_Vector_impl_data", ptr %6, i32 0, i32 0
  %8 = load ptr, ptr %7, align 8, !tbaa !44
  %9 = load i64, ptr %4, align 8, !tbaa !42
  %10 = getelementptr inbounds nuw double, ptr %8, i64 %9
  ret ptr %10
}

; Function Attrs: mustprogress nounwind uwtable
define hidden noundef double @_ZN2cv4epnp18reprojection_errorEPA3_KdPS1_(ptr noundef nonnull align 8 dereferenceable(352) %0, ptr noundef %1, ptr noundef %2) #5 align 2 {
  %4 = alloca ptr, align 8
  %5 = alloca ptr, align 8
  %6 = alloca ptr, align 8
  %7 = alloca double, align 8
  %8 = alloca i32, align 4
  %9 = alloca ptr, align 8
  %10 = alloca double, align 8
  %11 = alloca double, align 8
  %12 = alloca double, align 8
  %13 = alloca double, align 8
  %14 = alloca double, align 8
  %15 = alloca double, align 8
  %16 = alloca double, align 8
  store ptr %0, ptr %4, align 8, !tbaa !3
  store ptr %1, ptr %5, align 8, !tbaa !83
  store ptr %2, ptr %6, align 8, !tbaa !83
  %17 = load ptr, ptr %4, align 8
  call void @llvm.lifetime.start.p0(i64 8, ptr %7) #3
  store double 0.000000e+00, ptr %7, align 8, !tbaa !40
  call void @llvm.lifetime.start.p0(i64 4, ptr %8) #3
  store i32 0, ptr %8, align 4, !tbaa !10
  br label %18

18:                                               ; preds = %104, %3
  %19 = load i32, ptr %8, align 4, !tbaa !10
  %20 = getelementptr inbounds nuw %"class.cv::epnp", ptr %17, i32 0, i32 8
  %21 = load i32, ptr %20, align 8, !tbaa !12
  %22 = icmp slt i32 %19, %21
  br i1 %22, label %24, label %23

23:                                               ; preds = %18
  call void @llvm.lifetime.end.p0(i64 4, ptr %8) #3
  br label %107

24:                                               ; preds = %18
  call void @llvm.lifetime.start.p0(i64 8, ptr %9) #3
  %25 = getelementptr inbounds nuw %"class.cv::epnp", ptr %17, i32 0, i32 4
  %26 = load i32, ptr %8, align 4, !tbaa !10
  %27 = mul nsw i32 3, %26
  %28 = sext i32 %27 to i64
  %29 = call noundef nonnull align 8 dereferenceable(8) ptr @_ZNSt6vectorIdSaIdEEixEm(ptr noundef nonnull align 8 dereferenceable(24) %25, i64 noundef %28) #3
  store ptr %29, ptr %9, align 8, !tbaa !83
  call void @llvm.lifetime.start.p0(i64 8, ptr %10) #3
  %30 = load ptr, ptr %5, align 8, !tbaa !83
  %31 = getelementptr inbounds [3 x double], ptr %30, i64 0
  %32 = getelementptr inbounds [3 x double], ptr %31, i64 0, i64 0
  %33 = load ptr, ptr %9, align 8, !tbaa !83
  %34 = call noundef double @_ZN2cv4epnp3dotEPKdS2_(ptr noundef nonnull align 8 dereferenceable(352) %17, ptr noundef %32, ptr noundef %33)
  %35 = load ptr, ptr %6, align 8, !tbaa !83
  %36 = getelementptr inbounds double, ptr %35, i64 0
  %37 = load double, ptr %36, align 8, !tbaa !40
  %38 = fadd double %34, %37
  store double %38, ptr %10, align 8, !tbaa !40
  call void @llvm.lifetime.start.p0(i64 8, ptr %11) #3
  %39 = load ptr, ptr %5, align 8, !tbaa !83
  %40 = getelementptr inbounds [3 x double], ptr %39, i64 1
  %41 = getelementptr inbounds [3 x double], ptr %40, i64 0, i64 0
  %42 = load ptr, ptr %9, align 8, !tbaa !83
  %43 = call noundef double @_ZN2cv4epnp3dotEPKdS2_(ptr noundef nonnull align 8 dereferenceable(352) %17, ptr noundef %41, ptr noundef %42)
  %44 = load ptr, ptr %6, align 8, !tbaa !83
  %45 = getelementptr inbounds double, ptr %44, i64 1
  %46 = load double, ptr %45, align 8, !tbaa !40
  %47 = fadd double %43, %46
  store double %47, ptr %11, align 8, !tbaa !40
  call void @llvm.lifetime.start.p0(i64 8, ptr %12) #3
  %48 = load ptr, ptr %5, align 8, !tbaa !83
  %49 = getelementptr inbounds [3 x double], ptr %48, i64 2
  %50 = getelementptr inbounds [3 x double], ptr %49, i64 0, i64 0
  %51 = load ptr, ptr %9, align 8, !tbaa !83
  %52 = call noundef double @_ZN2cv4epnp3dotEPKdS2_(ptr noundef nonnull align 8 dereferenceable(352) %17, ptr noundef %50, ptr noundef %51)
  %53 = load ptr, ptr %6, align 8, !tbaa !83
  %54 = getelementptr inbounds double, ptr %53, i64 2
  %55 = load double, ptr %54, align 8, !tbaa !40
  %56 = fadd double %52, %55
  %57 = fdiv double 1.000000e+00, %56
  store double %57, ptr %12, align 8, !tbaa !40
  call void @llvm.lifetime.start.p0(i64 8, ptr %13) #3
  %58 = getelementptr inbounds nuw %"class.cv::epnp", ptr %17, i32 0, i32 0
  %59 = load double, ptr %58, align 8, !tbaa !36
  %60 = getelementptr inbounds nuw %"class.cv::epnp", ptr %17, i32 0, i32 2
  %61 = load double, ptr %60, align 8, !tbaa !38
  %62 = load double, ptr %10, align 8, !tbaa !40
  %63 = fmul double %61, %62
  %64 = load double, ptr %12, align 8, !tbaa !40
  %65 = call double @llvm.fmuladd.f64(double %63, double %64, double %59)
  store double %65, ptr %13, align 8, !tbaa !40
  call void @llvm.lifetime.start.p0(i64 8, ptr %14) #3
  %66 = getelementptr inbounds nuw %"class.cv::epnp", ptr %17, i32 0, i32 1
  %67 = load double, ptr %66, align 8, !tbaa !37
  %68 = getelementptr inbounds nuw %"class.cv::epnp", ptr %17, i32 0, i32 3
  %69 = load double, ptr %68, align 8, !tbaa !39
  %70 = load double, ptr %11, align 8, !tbaa !40
  %71 = fmul double %69, %70
  %72 = load double, ptr %12, align 8, !tbaa !40
  %73 = call double @llvm.fmuladd.f64(double %71, double %72, double %67)
  store double %73, ptr %14, align 8, !tbaa !40
  call void @llvm.lifetime.start.p0(i64 8, ptr %15) #3
  %74 = getelementptr inbounds nuw %"class.cv::epnp", ptr %17, i32 0, i32 5
  %75 = load i32, ptr %8, align 4, !tbaa !10
  %76 = mul nsw i32 2, %75
  %77 = sext i32 %76 to i64
  %78 = call noundef nonnull align 8 dereferenceable(8) ptr @_ZNSt6vectorIdSaIdEEixEm(ptr noundef nonnull align 8 dereferenceable(24) %74, i64 noundef %77) #3
  %79 = load double, ptr %78, align 8, !tbaa !40
  store double %79, ptr %15, align 8, !tbaa !40
  call void @llvm.lifetime.start.p0(i64 8, ptr %16) #3
  %80 = getelementptr inbounds nuw %"class.cv::epnp", ptr %17, i32 0, i32 5
  %81 = load i32, ptr %8, align 4, !tbaa !10
  %82 = mul nsw i32 2, %81
  %83 = add nsw i32 %82, 1
  %84 = sext i32 %83 to i64
  %85 = call noundef nonnull align 8 dereferenceable(8) ptr @_ZNSt6vectorIdSaIdEEixEm(ptr noundef nonnull align 8 dereferenceable(24) %80, i64 noundef %84) #3
  %86 = load double, ptr %85, align 8, !tbaa !40
  store double %86, ptr %16, align 8, !tbaa !40
  %87 = load double, ptr %15, align 8, !tbaa !40
  %88 = load double, ptr %13, align 8, !tbaa !40
  %89 = fsub double %87, %88
  %90 = load double, ptr %15, align 8, !tbaa !40
  %91 = load double, ptr %13, align 8, !tbaa !40
  %92 = fsub double %90, %91
  %93 = load double, ptr %16, align 8, !tbaa !40
  %94 = load double, ptr %14, align 8, !tbaa !40
  %95 = fsub double %93, %94
  %96 = load double, ptr %16, align 8, !tbaa !40
  %97 = load double, ptr %14, align 8, !tbaa !40
  %98 = fsub double %96, %97
  %99 = fmul double %95, %98
  %100 = call double @llvm.fmuladd.f64(double %89, double %92, double %99)
  %101 = call double @sqrt(double noundef %100) #3, !tbaa !10
  %102 = load double, ptr %7, align 8, !tbaa !40
  %103 = fadd double %102, %101
  store double %103, ptr %7, align 8, !tbaa !40
  call void @llvm.lifetime.end.p0(i64 8, ptr %16) #3
  call void @llvm.lifetime.end.p0(i64 8, ptr %15) #3
  call void @llvm.lifetime.end.p0(i64 8, ptr %14) #3
  call void @llvm.lifetime.end.p0(i64 8, ptr %13) #3
  call void @llvm.lifetime.end.p0(i64 8, ptr %12) #3
  call void @llvm.lifetime.end.p0(i64 8, ptr %11) #3
  call void @llvm.lifetime.end.p0(i64 8, ptr %10) #3
  call void @llvm.lifetime.end.p0(i64 8, ptr %9) #3
  br label %104

104:                                              ; preds = %24
  %105 = load i32, ptr %8, align 4, !tbaa !10
  %106 = add nsw i32 %105, 1
  store i32 %106, ptr %8, align 4, !tbaa !10
  br label %18, !llvm.loop !118

107:                                              ; preds = %23
  %108 = load double, ptr %7, align 8, !tbaa !40
  %109 = getelementptr inbounds nuw %"class.cv::epnp", ptr %17, i32 0, i32 8
  %110 = load i32, ptr %109, align 8, !tbaa !12
  %111 = sitofp i32 %110 to double
  %112 = fdiv double %108, %111
  call void @llvm.lifetime.end.p0(i64 8, ptr %7) #3
  ret double %112
}