; Function Attrs: mustprogress nofree norecurse nosync nounwind willreturn memory(read, inaccessiblemem: none) uwtable
define hidden noundef double @_ZN2cv4epnp18reprojection_errorEPA3_KdPS1_(ptr noundef nonnull readonly align 8 captures(none) dereferenceable(352) %0, ptr noundef readonly captures(none) %1, ptr noundef readonly captures(none) %2) local_unnamed_addr #16 align 2 {
  %4 = getelementptr inbounds nuw i8, ptr %0, i64 128
  %5 = load i32, ptr %4, align 8, !tbaa !34
  %6 = icmp sgt i32 %5, 0
  br i1 %6, label %.lr.ph, label %._crit_edge

.lr.ph:                                           ; preds = %3
  %7 = getelementptr inbounds nuw i8, ptr %0, i64 32
  %8 = load ptr, ptr %7, align 8, !tbaa !36
  %9 = load double, ptr %1, align 8, !tbaa !32
  %10 = getelementptr inbounds nuw i8, ptr %1, i64 8
  %11 = load double, ptr %10, align 8, !tbaa !32
  %12 = getelementptr inbounds nuw i8, ptr %1, i64 16
  %13 = load double, ptr %12, align 8, !tbaa !32
  %14 = load double, ptr %2, align 8, !tbaa !32
  %15 = getelementptr inbounds nuw i8, ptr %1, i64 24
  %16 = load double, ptr %15, align 8, !tbaa !32
  %17 = getelementptr inbounds nuw i8, ptr %1, i64 32
  %18 = load double, ptr %17, align 8, !tbaa !32
  %19 = getelementptr inbounds nuw i8, ptr %1, i64 40
  %20 = load double, ptr %19, align 8, !tbaa !32
  %21 = getelementptr inbounds nuw i8, ptr %2, i64 8
  %22 = load double, ptr %21, align 8, !tbaa !32
  %23 = getelementptr inbounds nuw i8, ptr %1, i64 48
  %24 = load double, ptr %23, align 8, !tbaa !32
  %25 = getelementptr inbounds nuw i8, ptr %1, i64 56
  %26 = load double, ptr %25, align 8, !tbaa !32
  %27 = getelementptr inbounds nuw i8, ptr %1, i64 64
  %28 = load double, ptr %27, align 8, !tbaa !32
  %29 = getelementptr inbounds nuw i8, ptr %2, i64 16
  %30 = load double, ptr %29, align 8, !tbaa !32
  %31 = load double, ptr %0, align 8, !tbaa !20
  %32 = getelementptr inbounds nuw i8, ptr %0, i64 16
  %33 = load double, ptr %32, align 8, !tbaa !31
  %34 = getelementptr inbounds nuw i8, ptr %0, i64 8
  %35 = load double, ptr %34, align 8, !tbaa !30
  %36 = getelementptr inbounds nuw i8, ptr %0, i64 24
  %37 = load double, ptr %36, align 8, !tbaa !33
  %38 = getelementptr inbounds nuw i8, ptr %0, i64 56
  %39 = load ptr, ptr %38, align 8, !tbaa !36
  %wide.trip.count = zext nneg i32 %5 to i64
  br label %42

._crit_edge:                                      ; preds = %42, %3
  %.0.lcssa = phi double [ 0.000000e+00, %3 ], [ %76, %42 ]
  %40 = sitofp i32 %5 to double
  %41 = fdiv double %.0.lcssa, %40
  ret double %41

42:                                               ; preds = %.lr.ph, %42
  %indvars.iv = phi i64 [ 0, %.lr.ph ], [ %indvars.iv.next, %42 ]
  %.031 = phi double [ 0.000000e+00, %.lr.ph ], [ %76, %42 ]
  %.idx = mul nuw nsw i64 %indvars.iv, 24
  %43 = getelementptr inbounds nuw i8, ptr %8, i64 %.idx
  %44 = load double, ptr %43, align 8, !tbaa !32
  %45 = getelementptr inbounds nuw i8, ptr %43, i64 8
  %46 = load double, ptr %45, align 8, !tbaa !32
  %47 = fmul double %11, %46
  %48 = tail call double @llvm.fmuladd.f64(double %9, double %44, double %47)
  %49 = getelementptr inbounds nuw i8, ptr %43, i64 16
  %50 = load double, ptr %49, align 8, !tbaa !32
  %51 = tail call noundef double @llvm.fmuladd.f64(double %13, double %50, double %48)
  %52 = fadd double %51, %14
  %53 = fmul double %46, %18
  %54 = tail call double @llvm.fmuladd.f64(double %16, double %44, double %53)
  %55 = tail call noundef double @llvm.fmuladd.f64(double %20, double %50, double %54)
  %56 = fadd double %22, %55
  %57 = fmul double %46, %26
  %58 = tail call double @llvm.fmuladd.f64(double %24, double %44, double %57)
  %59 = tail call noundef double @llvm.fmuladd.f64(double %28, double %50, double %58)
  %60 = fadd double %30, %59
  %61 = fdiv double 1.000000e+00, %60
  %62 = fmul double %52, %33
  %63 = tail call double @llvm.fmuladd.f64(double %62, double %61, double %31)
  %64 = fmul double %56, %37
  %65 = tail call double @llvm.fmuladd.f64(double %64, double %61, double %35)
  %66 = shl nuw nsw i64 %indvars.iv, 1
  %67 = getelementptr inbounds nuw double, ptr %39, i64 %66
  %68 = load double, ptr %67, align 8, !tbaa !32
  %69 = or disjoint i64 %66, 1
  %70 = getelementptr inbounds nuw double, ptr %39, i64 %69
  %71 = load double, ptr %70, align 8, !tbaa !32
  %72 = fsub double %68, %63
  %73 = fsub double %71, %65
  %74 = fmul double %73, %73
  %75 = tail call double @llvm.fmuladd.f64(double %72, double %72, double %74)
  %sqrt = tail call double @llvm.sqrt.f64(double %75)
  %76 = fadd double %.031, %sqrt
  %indvars.iv.next = add nuw nsw i64 %indvars.iv, 1
  %exitcond.not = icmp eq i64 %indvars.iv.next, %wide.trip.count
  br i1 %exitcond.not, label %._crit_edge, label %42, !llvm.loop !145
}